; ModuleID = '27/1834.c'
source_filename = "27/1834.c"
target datalayout = "e-m:e-p270:32:32-p271:32:32-p272:64:64-i64:64-f80:128-n8:16:32:64-S128"
target triple = "x86_64-pc-linux-gnu"

@.str = private unnamed_addr constant [3 x i8] c"%d\00", align 1
@.str.1 = private unnamed_addr constant [12 x i8] c"%lf %lf %lf\00", align 1
@.str.2 = private unnamed_addr constant [9 x i8] c"x1=%.5f;\00", align 1
@.str.3 = private unnamed_addr constant [9 x i8] c"x2=%.5f\0A\00", align 1
@.str.4 = private unnamed_addr constant [12 x i8] c"x1=x2=%.5f\0A\00", align 1
@.str.5 = private unnamed_addr constant [15 x i8] c"x1=%.5f+%.5fi;\00", align 1
@.str.6 = private unnamed_addr constant [15 x i8] c"x2=%.5f-%.5fi\0A\00", align 1

; Function Attrs: noinline nounwind uwtable
define dso_local i32 @main() #0 {
  %1 = alloca i32, align 4
  %2 = alloca i32, align 4
  %3 = alloca i32, align 4
  %4 = alloca double, align 8
  %5 = alloca double, align 8
  %6 = alloca double, align 8
  %7 = alloca double, align 8
  %8 = alloca double, align 8
  %9 = alloca double, align 8
  store i32 0, i32* %1, align 4
  %10 = call i32 (i8*, ...) @__isoc99_scanf(i8* getelementptr inbounds ([3 x i8], [3 x i8]* @.str, i64 0, i64 0), i32* %2)
  store i32 1, i32* %3, align 4
  br label %11

11:                                               ; preds = %83, %0
  %12 = load i32, i32* %3, align 4
  %13 = load i32, i32* %2, align 4
  %14 = icmp sle i32 %12, %13
  br i1 %14, label %15, label %86

15:                                               ; preds = %11
  %16 = call i32 (i8*, ...) @__isoc99_scanf(i8* getelementptr inbounds ([12 x i8], [12 x i8]* @.str.1, i64 0, i64 0), double* %4, double* %5, double* %6)
  %17 = load double, double* %5, align 8
  %18 = load double, double* %5, align 8
  %19 = fmul double %17, %18
  %20 = load double, double* %4, align 8
  %21 = fmul double 4.000000e+00, %20
  %22 = load double, double* %6, align 8
  %23 = fmul double %21, %22
  %24 = fsub double %19, %23
  store double %24, double* %7, align 8
  %25 = load double, double* %7, align 8
  %26 = fcmp ogt double %25, 0.000000e+00
  br i1 %26, label %27, label %48

27:                                               ; preds = %15
  %28 = load double, double* %5, align 8
  %29 = fneg double %28
  %30 = load double, double* %7, align 8
  %31 = call double @sqrt(double %30) #3
  %32 = fadd double %29, %31
  %33 = load double, double* %4, align 8
  %34 = fmul double 2.000000e+00, %33
  %35 = fdiv double %32, %34
  store double %35, double* %8, align 8
  %36 = load double, double* %5, align 8
  %37 = fneg double %36
  %38 = load double, double* %7, align 8
  %39 = call double @sqrt(double %38) #3
  %40 = fsub double %37, %39
  %41 = load double, double* %4, align 8
  %42 = fmul double 2.000000e+00, %41
  %43 = fdiv double %40, %42
  store double %43, double* %9, align 8
  %44 = load double, double* %8, align 8
  %45 = call i32 (i8*, ...) @printf(i8* getelementptr inbounds ([9 x i8], [9 x i8]* @.str.2, i64 0, i64 0), double %44)
  %46 = load double, double* %9, align 8
  %47 = call i32 (i8*, ...) @printf(i8* getelementptr inbounds ([9 x i8], [9 x i8]* @.str.3, i64 0, i64 0), double %46)
  br label %82

48:                                               ; preds = %15
  %49 = load double, double* %7, align 8
  %50 = fcmp oeq double %49, 0.000000e+00
  br i1 %50, label %51, label %59

51:                                               ; preds = %48
  %52 = load double, double* %5, align 8
  %53 = fneg double %52
  %54 = load double, double* %4, align 8
  %55 = fmul double 2.000000e+00, %54
  %56 = fdiv double %53, %55
  store double %56, double* %8, align 8
  %57 = load double, double* %8, align 8
  %58 = call i32 (i8*, ...) @printf(i8* getelementptr inbounds ([12 x i8], [12 x i8]* @.str.4, i64 0, i64 0), double %57)
  br label %81

59:                                               ; preds = %48
  %60 = load double, double* %7, align 8
  %61 = fneg double %60
  %62 = call double @sqrt(double %61) #3
  %63 = load double, double* %4, align 8
  %64 = fmul double 2.000000e+00, %63
  %65 = fdiv double %62, %64
  store double %65, double* %8, align 8
  %66 = load double, double* %5, align 8
  %67 = fneg double %66
  %68 = load double, double* %4, align 8
  %69 = fmul double 2.000000e+00, %68
  %70 = fdiv double %67, %69
  store double %70, double* %9, align 8
  %71 = load double, double* %9, align 8
  %72 = fcmp oeq double %71, 0.000000e+00
  br i1 %72, label %73, label %74

73:                                               ; preds = %59
  store double 0.000000e+00, double* %9, align 8
  br label %74

74:                                               ; preds = %73, %59
  %75 = load double, double* %9, align 8
  %76 = load double, double* %8, align 8
  %77 = call i32 (i8*, ...) @printf(i8* getelementptr inbounds ([15 x i8], [15 x i8]* @.str.5, i64 0, i64 0), double %75, double %76)
  %78 = load double, double* %9, align 8
  %79 = load double, double* %8, align 8
  %80 = call i32 (i8*, ...) @printf(i8* getelementptr inbounds ([15 x i8], [15 x i8]* @.str.6, i64 0, i64 0), double %78, double %79)
  br label %81

81:                                               ; preds = %74, %51
  br label %82

82:                                               ; preds = %81, %27
  br label %83

83:                                               ; preds = %82
  %84 = load i32, i32* %3, align 4
  %85 = add nsw i32 %84, 1
  store i32 %85, i32* %3, align 4
  br label %11

86:                                               ; preds = %11
  %87 = call i32 @getchar()
  %88 = call i32 @getchar()
  %89 = call i32 @getchar()
  %90 = call i32 @getchar()
  %91 = call i32 @getchar()
  %92 = call i32 @getchar()
  %93 = call i32 @getchar()
  %94 = call i32 @getchar()
  %95 = load i32, i32* %1, align 4
  ret i32 %95
}

declare dso_local i32 @__isoc99_scanf(i8*, ...) #1

; Function Attrs: nounwind
declare dso_local double @sqrt(double) #2

declare dso_local i32 @printf(i8*, ...) #1

declare dso_local i32 @getchar() #1


!llvm.module.flags = !{!0}
!llvm.ident = !{!1}

!0 = !{i32 1, !"wchar_size", i32 4}
!1 = !{!"clang version 10.0.0-4ubuntu1 "}
